; ModuleID = '17/997.c'
source_filename = "17/997.c"
target datalayout = "e-m:e-p270:32:32-p271:32:32-p272:64:64-i64:64-f80:128-n8:16:32:64-S128"
target triple = "x86_64-pc-linux-gnu"

@.str = private unnamed_addr constant [2 x i8] c"\0A\00", align 1
@.str.1 = private unnamed_addr constant [2 x i8] c" \00", align 1
@.str.2 = private unnamed_addr constant [2 x i8] c"$\00", align 1
@.str.3 = private unnamed_addr constant [2 x i8] c"?\00", align 1

; Function Attrs: noinline nounwind uwtable
define dso_local i32 @main() #0 {
  %1 = alloca i32, align 4
  %2 = alloca [105 x i8], align 16
  %3 = alloca i32, align 4
  %4 = alloca i32, align 4
  %5 = alloca i32, align 4
  %6 = alloca [105 x i32], align 16
  store i32 0, i32* %1, align 4
  br label %7

7:                                                ; preds = %119, %0
  %8 = getelementptr inbounds [105 x i8], [105 x i8]* %2, i64 0, i64 0
  %9 = call i32 (i8*, ...) bitcast (i32 (...)* @gets to i32 (i8*, ...)*)(i8* %8)
  %10 = icmp ne i32 %9, 0
  br i1 %10, label %11, label %121

11:                                               ; preds = %7
  %12 = getelementptr inbounds [105 x i8], [105 x i8]* %2, i64 0, i64 0
  %13 = call i64 @strlen(i8* %12) #3
  %14 = trunc i64 %13 to i32
  store i32 %14, i32* %3, align 4
  store i32 0, i32* %4, align 4
  store i32 0, i32* %4, align 4
  br label %15

15:                                               ; preds = %47, %11
  %16 = load i32, i32* %4, align 4
  %17 = load i32, i32* %3, align 4
  %18 = icmp slt i32 %16, %17
  br i1 %18, label %19, label %50

19:                                               ; preds = %15
  %20 = load i32, i32* %4, align 4
  %21 = sext i32 %20 to i64
  %22 = getelementptr inbounds [105 x i8], [105 x i8]* %2, i64 0, i64 %21
  %23 = load i8, i8* %22, align 1
  %24 = sext i8 %23 to i32
  %25 = icmp eq i32 %24, 40
  br i1 %25, label %26, label %30

26:                                               ; preds = %19
  %27 = load i32, i32* %4, align 4
  %28 = sext i32 %27 to i64
  %29 = getelementptr inbounds [105 x i32], [105 x i32]* %6, i64 0, i64 %28
  store i32 1, i32* %29, align 4
  br label %46

30:                                               ; preds = %19
  %31 = load i32, i32* %4, align 4
  %32 = sext i32 %31 to i64
  %33 = getelementptr inbounds [105 x i8], [105 x i8]* %2, i64 0, i64 %32
  %34 = load i8, i8* %33, align 1
  %35 = sext i8 %34 to i32
  %36 = icmp eq i32 %35, 41
  br i1 %36, label %37, label %41

37:                                               ; preds = %30
  %38 = load i32, i32* %4, align 4
  %39 = sext i32 %38 to i64
  %40 = getelementptr inbounds [105 x i32], [105 x i32]* %6, i64 0, i64 %39
  store i32 -1, i32* %40, align 4
  br label %45

41:                                               ; preds = %30
  %42 = load i32, i32* %4, align 4
  %43 = sext i32 %42 to i64
  %44 = getelementptr inbounds [105 x i32], [105 x i32]* %6, i64 0, i64 %43
  store i32 0, i32* %44, align 4
  br label %45

45:                                               ; preds = %41, %37
  br label %46

46:                                               ; preds = %45, %26
  br label %47

47:                                               ; preds = %46
  %48 = load i32, i32* %4, align 4
  %49 = add nsw i32 %48, 1
  store i32 %49, i32* %4, align 4
  br label %15

50:                                               ; preds = %15
  store i32 0, i32* %4, align 4
  br label %51

51:                                               ; preds = %85, %50
  %52 = load i32, i32* %4, align 4
  %53 = load i32, i32* %3, align 4
  %54 = icmp slt i32 %52, %53
  br i1 %54, label %55, label %88

55:                                               ; preds = %51
  %56 = load i32, i32* %4, align 4
  %57 = sext i32 %56 to i64
  %58 = getelementptr inbounds [105 x i32], [105 x i32]* %6, i64 0, i64 %57
  %59 = load i32, i32* %58, align 4
  %60 = icmp eq i32 %59, -1
  br i1 %60, label %61, label %84

61:                                               ; preds = %55
  %62 = load i32, i32* %4, align 4
  store i32 %62, i32* %5, align 4
  br label %63

63:                                               ; preds = %80, %61
  %64 = load i32, i32* %5, align 4
  %65 = icmp sge i32 %64, 0
  br i1 %65, label %66, label %83

66:                                               ; preds = %63
  %67 = load i32, i32* %5, align 4
  %68 = sext i32 %67 to i64
  %69 = getelementptr inbounds [105 x i32], [105 x i32]* %6, i64 0, i64 %68
  %70 = load i32, i32* %69, align 4
  %71 = icmp eq i32 %70, 1
  br i1 %71, label %72, label %79

72:                                               ; preds = %66
  %73 = load i32, i32* %4, align 4
  %74 = sext i32 %73 to i64
  %75 = getelementptr inbounds [105 x i32], [105 x i32]* %6, i64 0, i64 %74
  store i32 0, i32* %75, align 4
  %76 = load i32, i32* %5, align 4
  %77 = sext i32 %76 to i64
  %78 = getelementptr inbounds [105 x i32], [105 x i32]* %6, i64 0, i64 %77
  store i32 0, i32* %78, align 4
  br label %83

79:                                               ; preds = %66
  br label %80

80:                                               ; preds = %79
  %81 = load i32, i32* %5, align 4
  %82 = add nsw i32 %81, -1
  store i32 %82, i32* %5, align 4
  br label %63

83:                                               ; preds = %72, %63
  br label %84

84:                                               ; preds = %83, %55
  br label %85

85:                                               ; preds = %84
  %86 = load i32, i32* %4, align 4
  %87 = add nsw i32 %86, 1
  store i32 %87, i32* %4, align 4
  br label %51

88:                                               ; preds = %51
  %89 = getelementptr inbounds [105 x i8], [105 x i8]* %2, i64 0, i64 0
  %90 = call i32 @puts(i8* %89)
  %91 = call i32 (i8*, ...) @printf(i8* getelementptr inbounds ([2 x i8], [2 x i8]* @.str, i64 0, i64 0))
  store i32 0, i32* %4, align 4
  br label %92

92:                                               ; preds = %116, %88
  %93 = load i32, i32* %4, align 4
  %94 = load i32, i32* %3, align 4
  %95 = icmp slt i32 %93, %94
  br i1 %95, label %96, label %119

96:                                               ; preds = %92
  %97 = load i32, i32* %4, align 4
  %98 = sext i32 %97 to i64
  %99 = getelementptr inbounds [105 x i32], [105 x i32]* %6, i64 0, i64 %98
  %100 = load i32, i32* %99, align 4
  %101 = icmp eq i32 %100, 0
  br i1 %101, label %102, label %104

102:                                              ; preds = %96
  %103 = call i32 (i8*, ...) @printf(i8* getelementptr inbounds ([2 x i8], [2 x i8]* @.str.1, i64 0, i64 0))
  br label %115

104:                                              ; preds = %96
  %105 = load i32, i32* %4, align 4
  %106 = sext i32 %105 to i64
  %107 = getelementptr inbounds [105 x i32], [105 x i32]* %6, i64 0, i64 %106
  %108 = load i32, i32* %107, align 4
  %109 = icmp eq i32 %108, 1
  br i1 %109, label %110, label %112

110:                                              ; preds = %104
  %111 = call i32 (i8*, ...) @printf(i8* getelementptr inbounds ([2 x i8], [2 x i8]* @.str.2, i64 0, i64 0))
  br label %114

112:                                              ; preds = %104
  %113 = call i32 (i8*, ...) @printf(i8* getelementptr inbounds ([2 x i8], [2 x i8]* @.str.3, i64 0, i64 0))
  br label %114

114:                                              ; preds = %112, %110
  br label %115

115:                                              ; preds = %114, %102
  br label %116

116:                                              ; preds = %115
  %117 = load i32, i32* %4, align 4
  %118 = add nsw i32 %117, 1
  store i32 %118, i32* %4, align 4
  br label %92

119:                                              ; preds = %92
  %120 = call i32 (i8*, ...) @printf(i8* getelementptr inbounds ([2 x i8], [2 x i8]* @.str, i64 0, i64 0))
  br label %7

121:                                              ; preds = %7
  ret i32 0
}

declare dso_local i32 @gets(...) #1

; Function Attrs: nounwind readonly
declare dso_local i64 @strlen(i8*) #2

declare dso_local i32 @puts(i8*) #1

declare dso_local i32 @printf(i8*, ...) #1


!llvm.module.flags = !{!0}
!llvm.ident = !{!1}

!0 = !{i32 1, !"wchar_size", i32 4}
!1 = !{!"clang version 10.0.0-4ubuntu1 "}
